TN:
SF:/usr/include/c++/4.6/bits/locale_facets.h
FN:1076,_ZNKSt5ctypeIcE8do_widenEc
FN:1099,_ZNKSt5ctypeIcE8do_widenEPKcS2_Pc
FN:1125,_ZNKSt5ctypeIcE9do_narrowEcc
FN:1151,_ZNKSt5ctypeIcE9do_narrowEPKcS2_cPc
FNDA:0,_ZNKSt5ctypeIcE8do_widenEc
FNDA:0,_ZNKSt5ctypeIcE8do_widenEPKcS2_Pc
FNDA:0,_ZNKSt5ctypeIcE9do_narrowEcc
FNDA:0,_ZNKSt5ctypeIcE9do_narrowEPKcS2_cPc
FNF:4
FNH:0
DA:1076,0
DA:1077,0
DA:1099,0
DA:1101,0
DA:1102,0
DA:1125,0
DA:1126,0
DA:1151,0
DA:1154,0
DA:1155,0
LF:10
LH:0
end_of_record
SF:/usr/include/c++/4.6/iostream
DA:75,3
LF:1
LH:1
end_of_record
SF:/local/yyang/workspace/github/btree/btreeobject.cpp
FN:38,_ZN16BTreeObjectClassC2Ev
FN:42,_ZN16BTreeObjectClassC2Ei
FN:50,_ZN16BTreeObjectClassD2Ev
FN:55,_ZN16BTreeObjectClass6assignEi
FN:61,_ZN16BTreeObjectClass8read_keyEv
FN:67,_ZN16BTreeObjectClass9read_nodeEv
FN:73,_ZN16BTreeObjectClass10read_indexEv
FN:76,_Z41__static_initialization_and_destruction_0ii
FN:76,_GLOBAL__sub_I__ZN16BTreeObjectClassC2Ev
FNDA:1138491701,_ZN16BTreeObjectClassC2Ev
FNDA:0,_ZN16BTreeObjectClassC2Ei
FNDA:1138491701,_ZN16BTreeObjectClassD2Ev
FNDA:100675584,_ZN16BTreeObjectClass6assignEi
FNDA:0,_ZN16BTreeObjectClass8read_keyEv
FNDA:201326592,_ZN16BTreeObjectClass9read_nodeEv
FNDA:0,_ZN16BTreeObjectClass10read_indexEv
FNDA:3,_GLOBAL__sub_I__ZN16BTreeObjectClassC2Ev
FNDA:3,_Z41__static_initialization_and_destruction_0ii
FNF:9
FNH:6
DA:38,1138491701
DA:40,1138491701
DA:42,0
DA:44,0
DA:45,0
DA:46,0
DA:47,0
DA:50,1138491701
DA:52,1138491701
DA:55,100675584
DA:57,100675584
DA:58,100675584
DA:61,0
DA:63,0
DA:67,201326592
DA:69,201326592
DA:73,0
DA:75,0
DA:76,9
LF:19
LH:10
end_of_record
TN:
SF:/local/yyang/workspace/github/btree/util.cpp
FN:4,_Z15random_in_rangejj
FNDA:904743672,_Z15random_in_rangejj
FNF:1
FNH:1
DA:4,904743672
DA:6,904743672
DA:8,904743672
DA:10,904743672
DA:11,904743672
DA:12,904743672
DA:16,904743672
DA:17,904743633
DA:19,39
LF:9
LH:9
end_of_record
TN:
SF:/usr/include/c++/4.6/bits/basic_ios.h
FN:48,_ZSt13__check_facetISt5ctypeIcEERKT_PS3_
FN:129,_ZNKSt9basic_iosIcSt11char_traitsIcEE7rdstateEv
FN:149,_ZNSt9basic_iosIcSt11char_traitsIcEE8setstateESt12_Ios_Iostate
FN:441,_ZNKSt9basic_iosIcSt11char_traitsIcEE5widenEc
FNDA:0,_ZSt13__check_facetISt5ctypeIcEERKT_PS3_
FNDA:0,_ZNKSt9basic_iosIcSt11char_traitsIcEE7rdstateEv
FNDA:0,_ZNSt9basic_iosIcSt11char_traitsIcEE8setstateESt12_Ios_Iostate
FNDA:0,_ZNKSt9basic_iosIcSt11char_traitsIcEE5widenEc
FNF:4
FNH:0
DA:48,0
DA:50,0
DA:51,0
DA:52,0
DA:129,0
DA:130,0
DA:149,0
DA:150,0
DA:441,0
DA:442,0
LF:10
LH:0
end_of_record
SF:/usr/include/c++/4.6/bits/char_traits.h
FN:260,_ZNSt11char_traitsIcE6lengthEPKc
FNDA:0,_ZNSt11char_traitsIcE6lengthEPKc
FNF:1
FNH:0
DA:260,0
DA:261,0
LF:2
LH:0
end_of_record
SF:/usr/include/c++/4.6/bits/ios_base.h
FN:159,_ZStorSt12_Ios_IostateS_
FNDA:0,_ZStorSt12_Ios_IostateS_
FNF:1
FNH:0
DA:159,0
DA:160,0
LF:2
LH:0
end_of_record
SF:/usr/include/c++/4.6/bits/locale_facets.h
FN:866,_ZNKSt5ctypeIcE5widenEc
FN:1076,_ZNKSt5ctypeIcE8do_widenEc
FN:1099,_ZNKSt5ctypeIcE8do_widenEPKcS2_Pc
FN:1125,_ZNKSt5ctypeIcE9do_narrowEcc
FN:1151,_ZNKSt5ctypeIcE9do_narrowEPKcS2_cPc
FNDA:0,_ZNKSt5ctypeIcE5widenEc
FNDA:0,_ZNKSt5ctypeIcE8do_widenEc
FNDA:0,_ZNKSt5ctypeIcE8do_widenEPKcS2_Pc
FNDA:0,_ZNKSt5ctypeIcE9do_narrowEcc
FNDA:0,_ZNKSt5ctypeIcE9do_narrowEPKcS2_cPc
FNF:5
FNH:0
DA:866,0
DA:868,0
DA:869,0
DA:870,0
DA:871,0
DA:1076,0
DA:1077,0
DA:1099,0
DA:1101,0
DA:1102,0
DA:1125,0
DA:1126,0
DA:1151,0
DA:1154,0
DA:1155,0
LF:15
LH:0
end_of_record
SF:/usr/include/c++/4.6/iostream
DA:75,2
LF:1
LH:1
end_of_record
SF:/usr/include/c++/4.6/ostream
FN:110,_ZNSolsEPFRSoS_E
FN:510,_ZStlsISt11char_traitsIcEERSt13basic_ostreamIcT_ES5_PKc
FN:543,_ZSt4endlIcSt11char_traitsIcEERSt13basic_ostreamIT_T0_ES6_
FN:564,_ZSt5flushIcSt11char_traitsIcEERSt13basic_ostreamIT_T0_ES6_
FNDA:0,_ZNSolsEPFRSoS_E
FNDA:0,_ZStlsISt11char_traitsIcEERSt13basic_ostreamIcT_ES5_PKc
FNDA:0,_ZSt4endlIcSt11char_traitsIcEERSt13basic_ostreamIT_T0_ES6_
FNDA:0,_ZSt5flushIcSt11char_traitsIcEERSt13basic_ostreamIT_T0_ES6_
FNF:4
FNH:0
DA:110,0
DA:115,0
DA:510,0
DA:512,0
DA:513,0
DA:515,0
DA:517,0
DA:543,0
DA:544,0
DA:564,0
DA:565,0
LF:11
LH:0
end_of_record
SF:/local/yyang/workspace/github/btree/btree.cpp
FN:39,_ZN10BTreeClassC2Ei
FN:45,_ZN10BTreeClassD2Ev
FN:51,_ZN10BTreeClass8traverseEv
FN:62,_ZN10BTreeClass5emptyEv
FN:68,_ZN10BTreeClass7min_keyEv
FN:74,_ZN10BTreeClass7max_keyEv
FN:80,_ZN10BTreeClass6heightEv
FN:93,_ZN10BTreeClass6insertEi
FN:116,_ZN10BTreeClass6searchEi
FN:130,_ZN10BTreeClass6removeEi
FN:137,_ZN10BTreeClass15_search_subtreeEP14BTreeNodeClassi
FN:162,_ZN10BTreeClass12_split_childEP14BTreeNodeClassi
FN:203,_ZN10BTreeClass15_insert_nonfullEP14BTreeNodeClassi
FN:242,_ZN10BTreeClass18_pre_descend_childEP14BTreeNodeClassiPv
FN:314,_ZN10BTreeClass14_descend_rightEP14BTreeNodeClassPv
FN:344,_ZN10BTreeClass13_descend_leftEP14BTreeNodeClassPv
FN:375,_ZN10BTreeClass8_descendEP14BTreeNodeClassiPv
FN:423,_ZN10BTreeClass17_remove_from_leafEP14BTreeNodeClassi
FN:448,_ZN10BTreeClass21_remove_from_non_leafEP14BTreeNodeClassiPv
FN:489,_ZN10BTreeClass9_move_keyEiP14BTreeNodeClassS1_ii
FN:519,_ZN10BTreeClass11_merge_nodeEP14BTreeNodeClassS1_
FN:546,_ZN10BTreeClass20_node_key_shift_leftEP14BTreeNodeClassii
FN:569,_ZN10BTreeClass21_node_key_shift_rightEP14BTreeNodeClassii
FN:595,_ZN10BTreeClass8_minimumEP14BTreeNodeClass
FN:612,_ZN10BTreeClass8_maximumEP14BTreeNodeClass
FN:621,_Z41__static_initialization_and_destruction_0ii
FN:621,_GLOBAL__sub_I__ZN10BTreeClassC2Ei
FNDA:2,_ZN10BTreeClassC2Ei
FNDA:2,_ZN10BTreeClassD2Ev
FNDA:4,_ZN10BTreeClass8traverseEv
FNDA:32772,_ZN10BTreeClass5emptyEv
FNDA:16386,_ZN10BTreeClass7min_keyEv
FNDA:16386,_ZN10BTreeClass7max_keyEv
FNDA:16386,_ZN10BTreeClass6heightEv
FNDA:67119104,_ZN10BTreeClass6insertEi
FNDA:134217728,_ZN10BTreeClass6searchEi
FNDA:67119104,_ZN10BTreeClass6removeEi
FNDA:532311316,_ZN10BTreeClass15_search_subtreeEP14BTreeNodeClassi
FNDA:8090588,_ZN10BTreeClass12_split_childEP14BTreeNodeClassi
FNDA:250719287,_ZN10BTreeClass15_insert_nonfullEP14BTreeNodeClassi
FNDA:179166777,_ZN10BTreeClass18_pre_descend_childEP14BTreeNodeClassiPv
FNDA:8272273,_ZN10BTreeClass14_descend_rightEP14BTreeNodeClassPv
FNDA:2659008,_ZN10BTreeClass13_descend_leftEP14BTreeNodeClassPv
FNDA:246332449,_ZN10BTreeClass8_descendEP14BTreeNodeClassiPv
FNDA:67119104,_ZN10BTreeClass17_remove_from_leafEP14BTreeNodeClassi
FNDA:10977849,_ZN10BTreeClass21_remove_from_non_leafEP14BTreeNodeClassiPv
FNDA:64541980,_ZN10BTreeClass9_move_keyEiP14BTreeNodeClassS1_ii
FNDA:8090588,_ZN10BTreeClass11_merge_nodeEP14BTreeNodeClassS1_
FNDA:64541980,_ZN10BTreeClass20_node_key_shift_leftEP14BTreeNodeClassii
FNDA:64541980,_ZN10BTreeClass21_node_key_shift_rightEP14BTreeNodeClassii
FNDA:16386,_ZN10BTreeClass8_minimumEP14BTreeNodeClass
FNDA:16386,_ZN10BTreeClass8_maximumEP14BTreeNodeClass
FNDA:2,_GLOBAL__sub_I__ZN10BTreeClassC2Ei
FNDA:2,_Z41__static_initialization_and_destruction_0ii
FNF:27
FNH:27
DA:39,2
DA:41,2
DA:42,2
DA:43,2
DA:45,2
DA:47,2
DA:48,2
DA:51,4
DA:53,4
DA:55,4
DA:56,2
DA:58,2
DA:59,4
DA:62,32772
DA:64,32772
DA:68,16386
DA:70,16386
DA:74,16386
DA:76,16386
DA:80,16386
DA:82,16386
DA:83,16386
DA:85,98746
DA:86,65974
DA:87,65974
DA:90,16386
DA:93,67119104
DA:99,67119104
DA:100,16386
DA:102,67119104
DA:104,67119104
DA:105,49588
DA:106,49588
DA:107,49588
DA:108,49588
DA:109,49588
DA:112,67069516
DA:113,67119104
DA:116,134217728
DA:119,134217728
DA:121,134217728
DA:123,134217728
DA:124,67117056
DA:126,134217728
DA:130,67119104
DA:133,67119104
DA:137,532311316
DA:139,532311316
DA:140,532311316
DA:142,2119456092
DA:143,1054833460
DA:145,532311316
DA:146,67117056
DA:147,67117056
DA:149,465194260
DA:150,67100672
DA:151,67100672
DA:155,398093588
DA:158,532311316
DA:162,8090588
DA:165,8090588
DA:168,8090588
DA:170,8090588
DA:171,8090588
DA:172,8090588
DA:175,53223315
DA:176,45132727
DA:179,8090588
DA:180,6808775
DA:181,5817480
DA:183,8090588
DA:186,47671463
DA:187,39580875
DA:189,8090588
DA:191,39580875
DA:192,31490287
DA:194,8090588
DA:195,8090588
DA:200,8090588
DA:203,250719287
DA:205,250719287
DA:206,250719287
DA:208,250719287
DA:209,447488337
DA:210,313250129
DA:211,313250129
DA:213,67119104
DA:214,67119104
DA:218,1016977004
DA:219,649776638
DA:220,183600183
DA:222,183600183
DA:223,8041000
DA:224,8041000
DA:225,4017085
DA:228,183600183
DA:232,250719287
DA:242,179166777
DA:244,179166777
DA:245,179166777
DA:246,179166777
DA:249,179166777
DA:251,179166777
DA:253,179166777
DA:254,144624939
DA:256,34541838
DA:257,4124364
DA:258,4124364
DA:259,30417474
DA:260,4390401
DA:261,4390401
DA:263,26027073
DA:264,26027073
DA:267,34541838
DA:268,19435357
DA:270,19435357
DA:271,19435357
DA:272,19435357
DA:273,19435357
DA:274,19435357
DA:276,15106481
DA:277,8790339
DA:278,8790339
DA:279,8790339
DA:280,8790339
DA:281,8790339
DA:283,6316142
DA:284,5094745
DA:286,5094745
DA:287,5094745
DA:288,5094745
DA:289,5094745
DA:291,5094745
DA:293,1221397
DA:295,1221397
DA:296,1221397
DA:297,1221397
DA:298,1221397
DA:301,0
DA:303,34541838
DA:314,8272273
DA:319,8272273
DA:321,8272273
DA:323,8272273
DA:324,6788906
DA:325,6788906
DA:326,6788906
DA:327,6788906
DA:330,1483367
DA:331,1483367
DA:334,8272273
DA:344,2659008
DA:349,2659008
DA:351,2659008
DA:353,2659008
DA:354,2414497
DA:355,2414497
DA:356,2414497
DA:357,2414497
DA:360,244511
DA:361,244511
DA:364,2659008
DA:375,246332449
DA:378,246332449
DA:379,246332449
DA:381,246332449
DA:383,246332449
DA:385,246332449
DA:386,68893550
DA:387,57915701
DA:388,57915701
DA:389,16386
DA:390,16386
DA:394,10977849
DA:396,68893550
DA:400,177438899
DA:401,0
DA:402,0
DA:405,177438899
DA:407,177438899
DA:409,177438899
DA:410,48061
DA:411,48061
DA:414,177438899
DA:423,67119104
DA:425,67119104
DA:427,67119104
DA:428,67119104
DA:430,397301879
DA:431,263063671
DA:432,263063671
DA:435,67119104
DA:437,67119104
DA:448,10977849
DA:451,10977849
DA:454,10977849
DA:456,10977849
DA:457,10977849
DA:459,10977849
DA:460,6788906
DA:461,4188943
DA:462,2414497
DA:464,1774446
DA:465,1774446
DA:466,1774446
DA:467,1774446
DA:468,1774446
DA:471,10977849
DA:472,1527
DA:473,1527
DA:476,10977849
DA:489,64541980
DA:491,64541980
DA:492,64541980
DA:494,400910634
DA:495,271826674
DA:497,317758234
DA:498,188674274
DA:500,64541980
DA:502,64541980
DA:504,64541980
DA:508,64541980
DA:519,8090588
DA:523,53223315
DA:524,45132727
DA:525,45132727
DA:528,8090588
DA:530,8090588
DA:532,8090588
DA:536,8090588
DA:546,64541980
DA:550,261493097
DA:551,196951117
DA:552,196951117
DA:553,92387428
DA:556,64541980
DA:557,16880927
DA:558,64541980
DA:559,64541980
DA:569,64541980
DA:573,64541980
DA:575,289771962
DA:576,225229982
DA:577,225229982
DA:578,120666293
DA:581,64541980
DA:583,64541980
DA:584,28225696
DA:586,64541980
DA:587,64541980
DA:595,16386
DA:597,16386
DA:599,82360
DA:600,49588
DA:602,16386
DA:612,16386
DA:614,16386
DA:616,82360
DA:617,49588
DA:619,16386
DA:621,6
LF:261
LH:258
end_of_record
TN:
SF:/usr/include/c++/4.6/bits/basic_ios.h
FN:48,_ZSt13__check_facetISt5ctypeIcEERKT_PS3_
FN:129,_ZNKSt9basic_iosIcSt11char_traitsIcEE7rdstateEv
FN:149,_ZNSt9basic_iosIcSt11char_traitsIcEE8setstateESt12_Ios_Iostate
FN:441,_ZNKSt9basic_iosIcSt11char_traitsIcEE5widenEc
FNDA:0,_ZSt13__check_facetISt5ctypeIcEERKT_PS3_
FNDA:0,_ZNKSt9basic_iosIcSt11char_traitsIcEE7rdstateEv
FNDA:0,_ZNSt9basic_iosIcSt11char_traitsIcEE8setstateESt12_Ios_Iostate
FNDA:0,_ZNKSt9basic_iosIcSt11char_traitsIcEE5widenEc
FNF:4
FNH:0
DA:48,0
DA:50,0
DA:51,0
DA:52,0
DA:129,0
DA:130,0
DA:149,0
DA:150,0
DA:441,0
DA:442,0
LF:10
LH:0
end_of_record
SF:/usr/include/c++/4.6/bits/char_traits.h
FN:260,_ZNSt11char_traitsIcE6lengthEPKc
FNDA:0,_ZNSt11char_traitsIcE6lengthEPKc
FNF:1
FNH:0
DA:260,0
DA:261,0
LF:2
LH:0
end_of_record
SF:/usr/include/c++/4.6/bits/ios_base.h
FN:159,_ZStorSt12_Ios_IostateS_
FNDA:0,_ZStorSt12_Ios_IostateS_
FNF:1
FNH:0
DA:159,0
DA:160,0
LF:2
LH:0
end_of_record
SF:/usr/include/c++/4.6/bits/locale_facets.h
FN:866,_ZNKSt5ctypeIcE5widenEc
FN:1076,_ZNKSt5ctypeIcE8do_widenEc
FN:1099,_ZNKSt5ctypeIcE8do_widenEPKcS2_Pc
FN:1125,_ZNKSt5ctypeIcE9do_narrowEcc
FN:1151,_ZNKSt5ctypeIcE9do_narrowEPKcS2_cPc
FNDA:0,_ZNKSt5ctypeIcE5widenEc
FNDA:0,_ZNKSt5ctypeIcE8do_widenEc
FNDA:0,_ZNKSt5ctypeIcE8do_widenEPKcS2_Pc
FNDA:0,_ZNKSt5ctypeIcE9do_narrowEcc
FNDA:0,_ZNKSt5ctypeIcE9do_narrowEPKcS2_cPc
FNF:5
FNH:0
DA:866,0
DA:868,0
DA:869,0
DA:870,0
DA:871,0
DA:1076,0
DA:1077,0
DA:1099,0
DA:1101,0
DA:1102,0
DA:1125,0
DA:1126,0
DA:1151,0
DA:1154,0
DA:1155,0
LF:15
LH:0
end_of_record
SF:/usr/include/c++/4.6/iostream
DA:75,1
LF:1
LH:1
end_of_record
SF:/usr/include/c++/4.6/ostream
FN:110,_ZNSolsEPFRSoS_E
FN:510,_ZStlsISt11char_traitsIcEERSt13basic_ostreamIcT_ES5_PKc
FN:543,_ZSt4endlIcSt11char_traitsIcEERSt13basic_ostreamIT_T0_ES6_
FN:564,_ZSt5flushIcSt11char_traitsIcEERSt13basic_ostreamIT_T0_ES6_
FNDA:0,_ZNSolsEPFRSoS_E
FNDA:0,_ZStlsISt11char_traitsIcEERSt13basic_ostreamIcT_ES5_PKc
FNDA:0,_ZSt4endlIcSt11char_traitsIcEERSt13basic_ostreamIT_T0_ES6_
FNDA:0,_ZSt5flushIcSt11char_traitsIcEERSt13basic_ostreamIT_T0_ES6_
FNF:4
FNH:0
DA:110,0
DA:115,0
DA:510,0
DA:512,0
DA:513,0
DA:515,0
DA:517,0
DA:543,0
DA:544,0
DA:564,0
DA:565,0
LF:11
LH:0
end_of_record
SF:/local/yyang/workspace/github/btree/main.cpp
FN:42,_ZL13shuffle_arrayPii
FN:57,_ZL12create_arrayPiii
FN:78,_ZL11reset_arrayPii
FN:87,_ZL4tc_0P10BTreeClass
FN:144,_ZL4tc_1P10BTreeClass
FN:184,main
FN:200,_Z41__static_initialization_and_destruction_0ii
FN:200,_GLOBAL__sub_I_main
FNDA:8193,_ZL13shuffle_arrayPii
FNDA:8193,_ZL12create_arrayPiii
FNDA:8195,_ZL11reset_arrayPii
FNDA:1,_ZL4tc_0P10BTreeClass
FNDA:1,_ZL4tc_1P10BTreeClass
FNDA:1,main
FNDA:1,_GLOBAL__sub_I_main
FNDA:1,_Z41__static_initialization_and_destruction_0ii
FNF:8
FNH:8
DA:42,8193
DA:47,33559552
DA:48,33551359
DA:49,33551359
DA:50,33551359
DA:51,33551359
DA:54,8193
DA:57,8193
DA:61,8193
DA:63,268038045
DA:64,268029852
DA:65,268029852
DA:66,268029852
DA:68,33559552
DA:71,8193
DA:73,8193
DA:75,8193
DA:78,8195
DA:82,67127299
DA:83,67119104
DA:84,8195
DA:87,1
DA:93,1
DA:96,1
DA:98,1
DA:100,8193
DA:102,8192
DA:104,33566720
DA:105,33558528
DA:107,8192
DA:108,8192
DA:109,8192
DA:112,67117056
DA:113,67108864
DA:114,67108864
DA:115,33558528
DA:116,33550336
DA:117,33550336
DA:118,0
DA:119,0
DA:123,33566720
DA:124,33558528
DA:126,8192
DA:128,8192
DA:130,8192
DA:131,0
DA:134,1
DA:135,0
DA:137,1
DA:144,1
DA:151,1
DA:153,1
DA:155,1
DA:157,1
DA:159,1025
DA:160,1024
DA:162,1
DA:163,1
DA:164,1
DA:166,1
DA:169,1025
DA:170,1024
DA:172,1
DA:173,1
DA:175,1
DA:177,1
DA:178,0
DA:180,1
DA:184,1
DA:188,1
DA:190,1
DA:192,1
DA:193,1
DA:195,1
DA:196,0
DA:198,1
DA:200,3
LF:77
LH:71
end_of_record
TN:
SF:/usr/include/c++/4.6/bits/basic_ios.h
FN:48,_ZSt13__check_facetISt5ctypeIcEERKT_PS3_
FN:129,_ZNKSt9basic_iosIcSt11char_traitsIcEE7rdstateEv
FN:149,_ZNSt9basic_iosIcSt11char_traitsIcEE8setstateESt12_Ios_Iostate
FN:441,_ZNKSt9basic_iosIcSt11char_traitsIcEE5widenEc
FNDA:0,_ZSt13__check_facetISt5ctypeIcEERKT_PS3_
FNDA:0,_ZNKSt9basic_iosIcSt11char_traitsIcEE7rdstateEv
FNDA:0,_ZNSt9basic_iosIcSt11char_traitsIcEE8setstateESt12_Ios_Iostate
FNDA:0,_ZNKSt9basic_iosIcSt11char_traitsIcEE5widenEc
FNF:4
FNH:0
DA:48,0
DA:50,0
DA:51,0
DA:52,0
DA:129,0
DA:130,0
DA:149,0
DA:150,0
DA:441,0
DA:442,0
LF:10
LH:0
end_of_record
SF:/usr/include/c++/4.6/bits/char_traits.h
FN:260,_ZNSt11char_traitsIcE6lengthEPKc
FNDA:0,_ZNSt11char_traitsIcE6lengthEPKc
FNF:1
FNH:0
DA:260,0
DA:261,0
LF:2
LH:0
end_of_record
SF:/usr/include/c++/4.6/bits/ios_base.h
FN:159,_ZStorSt12_Ios_IostateS_
FNDA:0,_ZStorSt12_Ios_IostateS_
FNF:1
FNH:0
DA:159,0
DA:160,0
LF:2
LH:0
end_of_record
SF:/usr/include/c++/4.6/bits/locale_facets.h
FN:866,_ZNKSt5ctypeIcE5widenEc
FN:1076,_ZNKSt5ctypeIcE8do_widenEc
FN:1099,_ZNKSt5ctypeIcE8do_widenEPKcS2_Pc
FN:1125,_ZNKSt5ctypeIcE9do_narrowEcc
FN:1151,_ZNKSt5ctypeIcE9do_narrowEPKcS2_cPc
FNDA:0,_ZNKSt5ctypeIcE5widenEc
FNDA:0,_ZNKSt5ctypeIcE8do_widenEc
FNDA:0,_ZNKSt5ctypeIcE8do_widenEPKcS2_Pc
FNDA:0,_ZNKSt5ctypeIcE9do_narrowEcc
FNDA:0,_ZNKSt5ctypeIcE9do_narrowEPKcS2_cPc
FNF:5
FNH:0
DA:866,0
DA:868,0
DA:869,0
DA:870,0
DA:871,0
DA:1076,0
DA:1077,0
DA:1099,0
DA:1101,0
DA:1102,0
DA:1125,0
DA:1126,0
DA:1151,0
DA:1154,0
DA:1155,0
LF:15
LH:0
end_of_record
SF:/usr/include/c++/4.6/iostream
DA:75,3
LF:1
LH:1
end_of_record
SF:/usr/include/c++/4.6/ostream
FN:110,_ZNSolsEPFRSoS_E
FN:510,_ZStlsISt11char_traitsIcEERSt13basic_ostreamIcT_ES5_PKc
FN:543,_ZSt4endlIcSt11char_traitsIcEERSt13basic_ostreamIT_T0_ES6_
FN:564,_ZSt5flushIcSt11char_traitsIcEERSt13basic_ostreamIT_T0_ES6_
FNDA:0,_ZNSolsEPFRSoS_E
FNDA:0,_ZStlsISt11char_traitsIcEERSt13basic_ostreamIcT_ES5_PKc
FNDA:0,_ZSt4endlIcSt11char_traitsIcEERSt13basic_ostreamIT_T0_ES6_
FNDA:0,_ZSt5flushIcSt11char_traitsIcEERSt13basic_ostreamIT_T0_ES6_
FNF:4
FNH:0
DA:110,0
DA:115,0
DA:510,0
DA:512,0
DA:513,0
DA:515,0
DA:517,0
DA:543,0
DA:544,0
DA:564,0
DA:565,0
LF:11
LH:0
end_of_record
SF:/local/yyang/workspace/github/btree/btreenode.cpp
FN:38,_ZN14BTreeNodeClassC2Ei
FN:60,_ZN14BTreeNodeClassC2Eii
FN:83,_ZN14BTreeNodeClassD2Ev
FN:90,_ZN14BTreeNodeClass8traverseEv
FN:113,_ZN14BTreeNodeClass14search_in_nodeEi
FN:122,_Z41__static_initialization_and_destruction_0ii
FN:122,_GLOBAL__sub_I__ZN14BTreeNodeClassC2Ei
FNDA:18538745,_ZN14BTreeNodeClassC2Ei
FNDA:116675,_ZN14BTreeNodeClassC2Eii
FNDA:18655420,_ZN14BTreeNodeClassD2Ev
FNDA:564,_ZN14BTreeNodeClass8traverseEv
FNDA:418888502,_ZN14BTreeNodeClass14search_in_nodeEi
FNDA:3,_GLOBAL__sub_I__ZN14BTreeNodeClassC2Ei
FNDA:3,_Z41__static_initialization_and_destruction_0ii
FNF:7
FNH:7
DA:38,18538745
DA:42,18538745
DA:43,18538745
DA:47,18538745
DA:48,18538745
DA:50,18538745
DA:51,187674317
DA:52,150596827
DA:53,150596827
DA:56,18538745
DA:58,18538745
DA:59,18538745
DA:60,116675
DA:63,116675
DA:64,116675
DA:68,116675
DA:69,116675
DA:71,116675
DA:72,1366241
DA:73,1132891
DA:74,1132891
DA:77,116675
DA:79,116675
DA:80,116675
DA:83,18655420
DA:85,18655420
DA:86,18655420
DA:87,18655420
DA:90,564
DA:94,3636
DA:95,3072
DA:96,453
DA:97,3072
DA:98,3072
DA:99,2619
DA:100,3072
DA:104,564
DA:105,108
DA:106,564
DA:113,418888502
DA:115,418888502
DA:118,2043864156
DA:119,1206087152
DA:121,418888502
DA:122,9
LF:45
LH:45
end_of_record
